target datalayout = "e-m:e-p270:32:32-p271:32:32-p272:64:64-i64:64-i128:128-f80:128-n8:16:32:64-S128"
target triple = "x86_64-pc-linux-gnu"

%struct.strbuf = type { i64, i64, ptr }
%struct.repository = type { ptr, ptr, ptr, ptr, ptr, %struct.strmap, %struct.strmap, %struct.repo_path_cache, ptr, ptr, ptr, ptr, %struct.repo_settings, ptr, ptr, ptr, ptr, ptr, ptr, i32, i32, i32, ptr, ptr, i32, i32, i8 }
%struct.strmap = type { %struct.hashmap, ptr, i8 }
%struct.hashmap = type { ptr, ptr, ptr, i32, i32, i32, i32, i8 }
%struct.repo_path_cache = type { ptr, ptr, ptr, ptr, ptr, ptr, ptr }
%struct.repo_settings = type { i32, i32, i32, i32, i32, i32, i32, i32, i32, i32, i32, i32, ptr, i32, i32, i32, i32, i32, i32, i32, i64, i64, i64 }
%struct.git_hash_algo = type { ptr, i32, i64, i64, i64, ptr, ptr, ptr, ptr, ptr, ptr, ptr, ptr, ptr }
%struct.git_zstream = type { %struct.z_stream_s, i64, i64, i64, i64, ptr, ptr }
%struct.z_stream_s = type { ptr, i32, i64, ptr, i32, i64, ptr, ptr, ptr, ptr, ptr, i32, i64, i64 }

@the_repository = external global ptr, align 8
@strbuf_slopbuf = external global [0 x i8], align 1
@.str.60 = private unnamed_addr constant [1 x i8] zeroinitializer, align 1
@git_gettext_enabled = external global i32, align 4
@.str.92 = private unnamed_addr constant [71 x i8] c"insufficient permission for adding an object to repository database %s\00", align 1
@.str.93 = private unnamed_addr constant [32 x i8] c"unable to create temporary file\00", align 1
@zlib_compression_level = external global i32, align 4
@.str.94 = private unnamed_addr constant [15 x i8] c"tmp_obj_XXXXXX\00", align 1
@.str.95 = private unnamed_addr constant [16 x i8] c"/tmp_obj_XXXXXX\00", align 1
@.str.108 = private unnamed_addr constant [11 x i8] c"./strbuf.h\00", align 1
@.str.109 = private unnamed_addr constant [30 x i8] c"strbuf_setlen() beyond buffer\00", align 1

; Function Attrs: inlinehint nounwind uwtable
define internal void @strbuf_addstr(ptr noundef %0, ptr noundef %1) #7 {
  %3 = alloca ptr, align 8
  %4 = alloca ptr, align 8
  store ptr %0, ptr %3, align 8, !tbaa !62
  store ptr %1, ptr %4, align 8, !tbaa !12
  %5 = load ptr, ptr %3, align 8, !tbaa !62
  %6 = load ptr, ptr %4, align 8, !tbaa !12
  %7 = load ptr, ptr %4, align 8, !tbaa !12
  %8 = call i64 @strlen(ptr noundef %7) #15
  call void @strbuf_add(ptr noundef %5, ptr noundef %6, i64 noundef %8)
  ret void
}

; Function Attrs: inlinehint nounwind uwtable
define internal void @strbuf_setlen(ptr noundef %0, i64 noundef %1) #7 {
  %3 = alloca ptr, align 8
  %4 = alloca i64, align 8
  store ptr %0, ptr %3, align 8, !tbaa !62
  store i64 %1, ptr %4, align 8, !tbaa !10
  %5 = load i64, ptr %4, align 8, !tbaa !10
  %6 = load ptr, ptr %3, align 8, !tbaa !62
  %7 = getelementptr inbounds nuw %struct.strbuf, ptr %6, i32 0, i32 0
  %8 = load i64, ptr %7, align 8, !tbaa !191
  %9 = icmp ne i64 %8, 0
  br i1 %9, label %10, label %15

10:                                               ; preds = %2
  %11 = load ptr, ptr %3, align 8, !tbaa !62
  %12 = getelementptr inbounds nuw %struct.strbuf, ptr %11, i32 0, i32 0
  %13 = load i64, ptr %12, align 8, !tbaa !191
  %14 = sub i64 %13, 1
  br label %16

15:                                               ; preds = %2
  br label %16

16:                                               ; preds = %15, %10
  %17 = phi i64 [ %14, %10 ], [ 0, %15 ]
  %18 = icmp ugt i64 %5, %17
  br i1 %18, label %19, label %20

19:                                               ; preds = %16
  call void (ptr, i32, ptr, ...) @BUG_fl(ptr noundef @.str.108, i32 noundef 167, ptr noundef @.str.109) #13
  unreachable

20:                                               ; preds = %16
  %21 = load i64, ptr %4, align 8, !tbaa !10
  %22 = load ptr, ptr %3, align 8, !tbaa !62
  %23 = getelementptr inbounds nuw %struct.strbuf, ptr %22, i32 0, i32 1
  store i64 %21, ptr %23, align 8, !tbaa !92
  %24 = load ptr, ptr %3, align 8, !tbaa !62
  %25 = getelementptr inbounds nuw %struct.strbuf, ptr %24, i32 0, i32 2
  %26 = load ptr, ptr %25, align 8, !tbaa !56
  %27 = icmp ne ptr %26, @strbuf_slopbuf
  br i1 %27, label %28, label %34

28:                                               ; preds = %20
  %29 = load ptr, ptr %3, align 8, !tbaa !62
  %30 = getelementptr inbounds nuw %struct.strbuf, ptr %29, i32 0, i32 2
  %31 = load ptr, ptr %30, align 8, !tbaa !56
  %32 = load i64, ptr %4, align 8, !tbaa !10
  %33 = getelementptr inbounds nuw i8, ptr %31, i64 %32
  store i8 0, ptr %33, align 1, !tbaa !58
  br label %35

34:                                               ; preds = %20
  br label %35

35:                                               ; preds = %34, %28
  ret void
}

; Function Attrs: inlinehint nounwind uwtable
define internal i32 @directory_size(ptr noundef %0) #7 {
  %2 = alloca i32, align 4
  %3 = alloca ptr, align 8
  %4 = alloca ptr, align 8
  %5 = alloca i32, align 4
  store ptr %0, ptr %3, align 8, !tbaa !12
  call void @llvm.lifetime.start.p0(i64 8, ptr %4) #14
  %6 = load ptr, ptr %3, align 8, !tbaa !12
  %7 = call ptr @strrchr(ptr noundef %6, i32 noundef 47) #15
  store ptr %7, ptr %4, align 8, !tbaa !12
  %8 = load ptr, ptr %4, align 8, !tbaa !12
  %9 = icmp ne ptr %8, null
  br i1 %9, label %11, label %10

10:                                               ; preds = %1
  store i32 0, ptr %2, align 4
  store i32 1, ptr %5, align 4
  br label %19

11:                                               ; preds = %1
  %12 = load ptr, ptr %4, align 8, !tbaa !12
  %13 = load ptr, ptr %3, align 8, !tbaa !12
  %14 = ptrtoint ptr %12 to i64
  %15 = ptrtoint ptr %13 to i64
  %16 = sub i64 %14, %15
  %17 = add nsw i64 %16, 1
  %18 = trunc i64 %17 to i32
  store i32 %18, ptr %2, align 4
  store i32 1, ptr %5, align 4
  br label %19

19:                                               ; preds = %11, %10
  call void @llvm.lifetime.end.p0(i64 8, ptr %4) #14
  %20 = load i32, ptr %2, align 4
  ret i32 %20
}

; Function Attrs: inlinehint nounwind uwtable
define internal i32 @const_error() #7 {
  ret i32 -1
}

; Function Attrs: inlinehint nounwind uwtable
define internal ptr @_(ptr noundef %0) #7 {
  %2 = alloca ptr, align 8
  %3 = alloca ptr, align 8
  store ptr %0, ptr %3, align 8, !tbaa !12
  %4 = load ptr, ptr %3, align 8, !tbaa !12
  %5 = load i8, ptr %4, align 1, !tbaa !58
  %6 = icmp ne i8 %5, 0
  br i1 %6, label %8, label %7

7:                                                ; preds = %1
  store ptr @.str.60, ptr %2, align 8
  br label %16

8:                                                ; preds = %1
  %9 = load i32, ptr @git_gettext_enabled, align 4, !tbaa !43
  %10 = icmp ne i32 %9, 0
  br i1 %10, label %13, label %11

11:                                               ; preds = %8
  %12 = load ptr, ptr %3, align 8, !tbaa !12
  store ptr %12, ptr %2, align 8
  br label %16

13:                                               ; preds = %8
  %14 = load ptr, ptr %3, align 8, !tbaa !12
  %15 = call ptr @dcgettext(ptr noundef null, ptr noundef %14, i32 noundef 5) #14
  store ptr %15, ptr %2, align 8
  br label %16

16:                                               ; preds = %13, %11, %7
  %17 = load ptr, ptr %2, align 8
  ret ptr %17
}

; Function Attrs: nounwind uwtable
define internal i32 @create_tmpfile(ptr noundef %0, ptr noundef %1) #0 {
  %3 = alloca i32, align 4
  %4 = alloca ptr, align 8
  %5 = alloca ptr, align 8
  %6 = alloca i32, align 4
  %7 = alloca i32, align 4
  %8 = alloca i32, align 4
  store ptr %0, ptr %4, align 8, !tbaa !62
  store ptr %1, ptr %5, align 8, !tbaa !12
  call void @llvm.lifetime.start.p0(i64 4, ptr %6) #14
  call void @llvm.lifetime.start.p0(i64 4, ptr %7) #14
  %9 = load ptr, ptr %5, align 8, !tbaa !12
  %10 = call i32 @directory_size(ptr noundef %9)
  store i32 %10, ptr %7, align 4, !tbaa !43
  %11 = load ptr, ptr %4, align 8, !tbaa !62
  call void @strbuf_setlen(ptr noundef %11, i64 noundef 0)
  %12 = load ptr, ptr %4, align 8, !tbaa !62
  %13 = load ptr, ptr %5, align 8, !tbaa !12
  %14 = load i32, ptr %7, align 4, !tbaa !43
  %15 = sext i32 %14 to i64
  call void @strbuf_add(ptr noundef %12, ptr noundef %13, i64 noundef %15)
  %16 = load ptr, ptr %4, align 8, !tbaa !62
  call void @strbuf_addstr(ptr noundef %16, ptr noundef @.str.94)
  %17 = load ptr, ptr %4, align 8, !tbaa !62
  %18 = getelementptr inbounds nuw %struct.strbuf, ptr %17, i32 0, i32 2
  %19 = load ptr, ptr %18, align 8, !tbaa !56
  %20 = call i32 @git_mkstemp_mode(ptr noundef %19, i32 noundef 292)
  store i32 %20, ptr %6, align 4, !tbaa !43
  %21 = load i32, ptr %6, align 4, !tbaa !43
  %22 = icmp slt i32 %21, 0
  br i1 %22, label %23, label %60

23:                                               ; preds = %2
  %24 = load i32, ptr %7, align 4, !tbaa !43
  %25 = icmp ne i32 %24, 0
  br i1 %25, label %26, label %60

26:                                               ; preds = %23
  %27 = call ptr @__errno_location() #16
  %28 = load i32, ptr %27, align 4, !tbaa !43
  %29 = icmp eq i32 %28, 2
  br i1 %29, label %30, label %60

30:                                               ; preds = %26
  %31 = load ptr, ptr %4, align 8, !tbaa !62
  call void @strbuf_setlen(ptr noundef %31, i64 noundef 0)
  %32 = load ptr, ptr %4, align 8, !tbaa !62
  %33 = load ptr, ptr %5, align 8, !tbaa !12
  %34 = load i32, ptr %7, align 4, !tbaa !43
  %35 = sub nsw i32 %34, 1
  %36 = sext i32 %35 to i64
  call void @strbuf_add(ptr noundef %32, ptr noundef %33, i64 noundef %36)
  %37 = load ptr, ptr %4, align 8, !tbaa !62
  %38 = getelementptr inbounds nuw %struct.strbuf, ptr %37, i32 0, i32 2
  %39 = load ptr, ptr %38, align 8, !tbaa !56
  %40 = call i32 @mkdir(ptr noundef %39, i32 noundef 511) #14
  %41 = icmp ne i32 %40, 0
  br i1 %41, label %42, label %47

42:                                               ; preds = %30
  %43 = call ptr @__errno_location() #16
  %44 = load i32, ptr %43, align 4, !tbaa !43
  %45 = icmp ne i32 %44, 17
  br i1 %45, label %46, label %47

46:                                               ; preds = %42
  store i32 -1, ptr %3, align 4
  store i32 1, ptr %8, align 4
  br label %62

47:                                               ; preds = %42, %30
  %48 = load ptr, ptr %4, align 8, !tbaa !62
  %49 = getelementptr inbounds nuw %struct.strbuf, ptr %48, i32 0, i32 2
  %50 = load ptr, ptr %49, align 8, !tbaa !56
  %51 = call i32 @adjust_shared_perm(ptr noundef %50)
  %52 = icmp ne i32 %51, 0
  br i1 %52, label %53, label %54

53:                                               ; preds = %47
  store i32 -1, ptr %3, align 4
  store i32 1, ptr %8, align 4
  br label %62

54:                                               ; preds = %47
  %55 = load ptr, ptr %4, align 8, !tbaa !62
  call void @strbuf_addstr(ptr noundef %55, ptr noundef @.str.95)
  %56 = load ptr, ptr %4, align 8, !tbaa !62
  %57 = getelementptr inbounds nuw %struct.strbuf, ptr %56, i32 0, i32 2
  %58 = load ptr, ptr %57, align 8, !tbaa !56
  %59 = call i32 @git_mkstemp_mode(ptr noundef %58, i32 noundef 292)
  store i32 %59, ptr %6, align 4, !tbaa !43
  br label %60

60:                                               ; preds = %54, %26, %23, %2
  %61 = load i32, ptr %6, align 4, !tbaa !43
  store i32 %61, ptr %3, align 4
  store i32 1, ptr %8, align 4
  br label %62

62:                                               ; preds = %60, %53, %46
  call void @llvm.lifetime.end.p0(i64 4, ptr %7) #14
  call void @llvm.lifetime.end.p0(i64 4, ptr %6) #14
  %63 = load i32, ptr %3, align 4
  ret i32 %63
}

; Function Attrs: nounwind uwtable
define internal i32 @start_loose_object_common(ptr noundef %0, ptr noundef %1, i32 noundef %2, ptr noundef %3, ptr noundef %4, i64 noundef %5, ptr noundef %6, ptr noundef %7, ptr noundef %8, i32 noundef %9) #0 {
  %11 = alloca i32, align 4
  %12 = alloca ptr, align 8
  %13 = alloca ptr, align 8
  %14 = alloca i32, align 4
  %15 = alloca ptr, align 8
  %16 = alloca ptr, align 8
  %17 = alloca i64, align 8
  %18 = alloca ptr, align 8
  %19 = alloca ptr, align 8
  %20 = alloca ptr, align 8
  %21 = alloca i32, align 4
  %22 = alloca ptr, align 8
  %23 = alloca ptr, align 8
  %24 = alloca ptr, align 8
  %25 = alloca i32, align 4
  %26 = alloca i32, align 4
  store ptr %0, ptr %12, align 8, !tbaa !62
  store ptr %1, ptr %13, align 8, !tbaa !12
  store i32 %2, ptr %14, align 4, !tbaa !43
  store ptr %3, ptr %15, align 8, !tbaa !116
  store ptr %4, ptr %16, align 8, !tbaa !12
  store i64 %5, ptr %17, align 8, !tbaa !10
  store ptr %6, ptr %18, align 8, !tbaa !4
  store ptr %7, ptr %19, align 8, !tbaa !4
  store ptr %8, ptr %20, align 8, !tbaa !12
  store i32 %9, ptr %21, align 4, !tbaa !43
  call void @llvm.lifetime.start.p0(i64 8, ptr %22) #14
  %27 = load ptr, ptr @the_repository, align 8, !tbaa !19
  store ptr %27, ptr %22, align 8, !tbaa !19
  call void @llvm.lifetime.start.p0(i64 8, ptr %23) #14
  %28 = load ptr, ptr %22, align 8, !tbaa !19
  %29 = getelementptr inbounds nuw %struct.repository, ptr %28, i32 0, i32 17
  %30 = load ptr, ptr %29, align 8, !tbaa !21
  store ptr %30, ptr %23, align 8, !tbaa !41
  call void @llvm.lifetime.start.p0(i64 8, ptr %24) #14
  %31 = load ptr, ptr %22, align 8, !tbaa !19
  %32 = getelementptr inbounds nuw %struct.repository, ptr %31, i32 0, i32 18
  %33 = load ptr, ptr %32, align 8, !tbaa !164
  store ptr %33, ptr %24, align 8, !tbaa !41
  call void @llvm.lifetime.start.p0(i64 4, ptr %25) #14
  %34 = load ptr, ptr %12, align 8, !tbaa !62
  %35 = load ptr, ptr %13, align 8, !tbaa !12
  %36 = call i32 @create_tmpfile(ptr noundef %34, ptr noundef %35)
  store i32 %36, ptr %25, align 4, !tbaa !43
  %37 = load i32, ptr %25, align 4, !tbaa !43
  %38 = icmp slt i32 %37, 0
  br i1 %38, label %39, label %58

39:                                               ; preds = %10
  %40 = load i32, ptr %14, align 4, !tbaa !43
  %41 = and i32 %40, 8
  %42 = icmp ne i32 %41, 0
  br i1 %42, label %43, label %44

43:                                               ; preds = %39
  store i32 -1, ptr %11, align 4
  store i32 1, ptr %26, align 4
  br label %117

44:                                               ; preds = %39
  %45 = call ptr @__errno_location() #16
  %46 = load i32, ptr %45, align 4, !tbaa !43
  %47 = icmp eq i32 %46, 13
  br i1 %47, label %48, label %54

48:                                               ; preds = %44
  %49 = call ptr @_(ptr noundef @.str.92)
  %50 = load ptr, ptr @the_repository, align 8, !tbaa !19
  %51 = call ptr @repo_get_object_directory(ptr noundef %50)
  %52 = call i32 (ptr, ...) @error(ptr noundef %49, ptr noundef %51)
  %53 = call i32 @const_error()
  store i32 %53, ptr %11, align 4
  store i32 1, ptr %26, align 4
  br label %117

54:                                               ; preds = %44
  %55 = call ptr @_(ptr noundef @.str.93)
  %56 = call i32 (ptr, ...) @error_errno(ptr noundef %55)
  %57 = call i32 @const_error()
  store i32 %57, ptr %11, align 4
  store i32 1, ptr %26, align 4
  br label %117

58:                                               ; preds = %10
  %59 = load ptr, ptr %15, align 8, !tbaa !116
  %60 = load i32, ptr @zlib_compression_level, align 4, !tbaa !43
  call void @git_deflate_init(ptr noundef %59, i32 noundef %60)
  %61 = load ptr, ptr %16, align 8, !tbaa !12
  %62 = load ptr, ptr %15, align 8, !tbaa !116
  %63 = getelementptr inbounds nuw %struct.git_zstream, ptr %62, i32 0, i32 6
  store ptr %61, ptr %63, align 8, !tbaa !123
  %64 = load i64, ptr %17, align 8, !tbaa !10
  %65 = load ptr, ptr %15, align 8, !tbaa !116
  %66 = getelementptr inbounds nuw %struct.git_zstream, ptr %65, i32 0, i32 2
  store i64 %64, ptr %66, align 8, !tbaa !124
  %67 = load ptr, ptr %23, align 8, !tbaa !41
  %68 = getelementptr inbounds nuw %struct.git_hash_algo, ptr %67, i32 0, i32 5
  %69 = load ptr, ptr %68, align 8, !tbaa !108
  %70 = load ptr, ptr %18, align 8, !tbaa !4
  call void %69(ptr noundef %70)
  %71 = load ptr, ptr %24, align 8, !tbaa !41
  %72 = icmp ne ptr %71, null
  br i1 %72, label %73, label %81

73:                                               ; preds = %58
  %74 = load ptr, ptr %19, align 8, !tbaa !4
  %75 = icmp ne ptr %74, null
  br i1 %75, label %76, label %81

76:                                               ; preds = %73
  %77 = load ptr, ptr %24, align 8, !tbaa !41
  %78 = getelementptr inbounds nuw %struct.git_hash_algo, ptr %77, i32 0, i32 5
  %79 = load ptr, ptr %78, align 8, !tbaa !108
  %80 = load ptr, ptr %19, align 8, !tbaa !4
  call void %79(ptr noundef %80)
  br label %81

81:                                               ; preds = %76, %73, %58
  %82 = load ptr, ptr %20, align 8, !tbaa !12
  %83 = load ptr, ptr %15, align 8, !tbaa !116
  %84 = getelementptr inbounds nuw %struct.git_zstream, ptr %83, i32 0, i32 5
  store ptr %82, ptr %84, align 8, !tbaa !118
  %85 = load i32, ptr %21, align 4, !tbaa !43
  %86 = sext i32 %85 to i64
  %87 = load ptr, ptr %15, align 8, !tbaa !116
  %88 = getelementptr inbounds nuw %struct.git_zstream, ptr %87, i32 0, i32 1
  store i64 %86, ptr %88, align 8, !tbaa !122
  br label %89

89:                                               ; preds = %93, %81
  %90 = load ptr, ptr %15, align 8, !tbaa !116
  %91 = call i32 @git_deflate(ptr noundef %90, i32 noundef 0)
  %92 = icmp eq i32 %91, 0
  br i1 %92, label %93, label %94

93:                                               ; preds = %89
  br label %89, !llvm.loop !170

94:                                               ; preds = %89
  %95 = load ptr, ptr %23, align 8, !tbaa !41
  %96 = getelementptr inbounds nuw %struct.git_hash_algo, ptr %95, i32 0, i32 7
  %97 = load ptr, ptr %96, align 8, !tbaa !109
  %98 = load ptr, ptr %18, align 8, !tbaa !4
  %99 = load ptr, ptr %20, align 8, !tbaa !12
  %100 = load i32, ptr %21, align 4, !tbaa !43
  %101 = sext i32 %100 to i64
  call void %97(ptr noundef %98, ptr noundef %99, i64 noundef %101)
  %102 = load ptr, ptr %24, align 8, !tbaa !41
  %103 = icmp ne ptr %102, null
  br i1 %103, label %104, label %115

104:                                              ; preds = %94
  %105 = load ptr, ptr %19, align 8, !tbaa !4
  %106 = icmp ne ptr %105, null
  br i1 %106, label %107, label %115

107:                                              ; preds = %104
  %108 = load ptr, ptr %24, align 8, !tbaa !41
  %109 = getelementptr inbounds nuw %struct.git_hash_algo, ptr %108, i32 0, i32 7
  %110 = load ptr, ptr %109, align 8, !tbaa !109
  %111 = load ptr, ptr %19, align 8, !tbaa !4
  %112 = load ptr, ptr %20, align 8, !tbaa !12
  %113 = load i32, ptr %21, align 4, !tbaa !43
  %114 = sext i32 %113 to i64
  call void %110(ptr noundef %111, ptr noundef %112, i64 noundef %114)
  br label %115

115:                                              ; preds = %107, %104, %94
  %116 = load i32, ptr %25, align 4, !tbaa !43
  store i32 %116, ptr %11, align 4
  store i32 1, ptr %26, align 4
  br label %117

117:                                              ; preds = %115, %54, %48, %43
  call void @llvm.lifetime.end.p0(i64 4, ptr %25) #14
  call void @llvm.lifetime.end.p0(i64 8, ptr %24) #14
  call void @llvm.lifetime.end.p0(i64 8, ptr %23) #14
  call void @llvm.lifetime.end.p0(i64 8, ptr %22) #14
  %118 = load i32, ptr %11, align 4
  ret i32 %118
}