; Function Attrs: nounwind uwtable
define internal fastcc range(i32 -1, -2147483648) i32 @start_loose_object_common(ptr noundef initializes((8, 16)) %0, ptr noundef %1, i32 noundef %2, ptr noundef nonnull %3, ptr noundef nonnull %4, ptr noundef nonnull %5, ptr noundef %6, ptr noundef %7, i32 noundef %8) unnamed_addr #1 {
  %10 = load ptr, ptr @the_repository, align 8, !tbaa !9
  %11 = getelementptr inbounds nuw i8, ptr %10, i64 400
  %12 = load ptr, ptr %11, align 8, !tbaa !12
  %13 = getelementptr inbounds nuw i8, ptr %10, i64 408
  %14 = load ptr, ptr %13, align 8, !tbaa !152
  %15 = tail call ptr @strrchr(ptr noundef nonnull dereferenceable(1) %1, i32 noundef 47) #28
  %.not.i.i = icmp eq ptr %15, null
  %16 = ptrtoint ptr %15 to i64
  %17 = ptrtoint ptr %1 to i64
  %18 = sub i64 %16, %17
  %19 = trunc i64 %18 to i32
  %20 = add i32 %19, 1
  %.0.i.i = select i1 %.not.i.i, i32 0, i32 %20
  %21 = getelementptr inbounds nuw i8, ptr %0, i64 8
  store i64 0, ptr %21, align 8, !tbaa !53
  %22 = getelementptr inbounds nuw i8, ptr %0, i64 16
  %23 = load ptr, ptr %22, align 8, !tbaa !49
  %.not9.i.i = icmp eq ptr %23, @strbuf_slopbuf
  br i1 %.not9.i.i, label %strbuf_setlen.exit.i, label %24

24:                                               ; preds = %9
  store i8 0, ptr %23, align 1, !tbaa !51
  br label %strbuf_setlen.exit.i

strbuf_setlen.exit.i:                             ; preds = %24, %9
  %25 = sext i32 %.0.i.i to i64
  tail call void @strbuf_add(ptr noundef nonnull %0, ptr noundef nonnull %1, i64 noundef %25) #27
  tail call void @strbuf_add(ptr noundef nonnull %0, ptr noundef nonnull @.str.94, i64 noundef 14) #27
  %26 = load ptr, ptr %22, align 8, !tbaa !49
  %27 = tail call i32 @git_mkstemp_mode(ptr noundef %26, i32 noundef 292) #27
  %28 = icmp slt i32 %27, 0
  %29 = icmp ne i32 %.0.i.i, 0
  %or.cond.i = select i1 %28, i1 %29, i1 false
  br i1 %or.cond.i, label %30, label %create_tmpfile.exit

30:                                               ; preds = %strbuf_setlen.exit.i
  %31 = tail call ptr @__errno_location() #29
  %32 = load i32, ptr %31, align 4, !tbaa !44
  %33 = icmp eq i32 %32, 2
  br i1 %33, label %34, label %create_tmpfile.exit.thread

34:                                               ; preds = %30
  store i64 0, ptr %21, align 8, !tbaa !53
  %35 = load ptr, ptr %22, align 8, !tbaa !49
  %.not9.i25.i = icmp eq ptr %35, @strbuf_slopbuf
  br i1 %.not9.i25.i, label %strbuf_setlen.exit26.i, label %36

36:                                               ; preds = %34
  store i8 0, ptr %35, align 1, !tbaa !51
  br label %strbuf_setlen.exit26.i

strbuf_setlen.exit26.i:                           ; preds = %36, %34
  %37 = add nsw i32 %.0.i.i, -1
  %38 = sext i32 %37 to i64
  tail call void @strbuf_add(ptr noundef nonnull %0, ptr noundef nonnull %1, i64 noundef %38) #27
  %39 = load ptr, ptr %22, align 8, !tbaa !49
  %40 = tail call i32 @mkdir(ptr noundef %39, i32 noundef 511) #27
  %.not.i = icmp eq i32 %40, 0
  br i1 %.not.i, label %43, label %41

41:                                               ; preds = %strbuf_setlen.exit26.i
  %42 = load i32, ptr %31, align 4, !tbaa !44
  %.not22.i = icmp eq i32 %42, 17
  br i1 %.not22.i, label %43, label %create_tmpfile.exit.thread

43:                                               ; preds = %41, %strbuf_setlen.exit26.i
  %44 = load ptr, ptr %22, align 8, !tbaa !49
  %45 = tail call i32 @adjust_shared_perm(ptr noundef %44) #27
  %.not23.i = icmp eq i32 %45, 0
  br i1 %.not23.i, label %46, label %create_tmpfile.exit.thread

46:                                               ; preds = %43
  tail call void @strbuf_add(ptr noundef nonnull %0, ptr noundef nonnull @.str.95, i64 noundef 15) #27
  %47 = load ptr, ptr %22, align 8, !tbaa !49
  %48 = tail call i32 @git_mkstemp_mode(ptr noundef %47, i32 noundef 292) #27
  br label %create_tmpfile.exit

create_tmpfile.exit:                              ; preds = %strbuf_setlen.exit.i, %46
  %.0.i = phi i32 [ %48, %46 ], [ %27, %strbuf_setlen.exit.i ]
  %49 = icmp slt i32 %.0.i, 0
  br i1 %49, label %create_tmpfile.exit.thread, label %66

create_tmpfile.exit.thread:                       ; preds = %30, %43, %41, %create_tmpfile.exit
  %50 = and i32 %2, 8
  %.not = icmp eq i32 %50, 0
  br i1 %.not, label %51, label %90

51:                                               ; preds = %create_tmpfile.exit.thread
  %52 = tail call ptr @__errno_location() #29
  %53 = load i32, ptr %52, align 4, !tbaa !44
  %54 = icmp eq i32 %53, 13
  %55 = load i32, ptr @git_gettext_enabled, align 4, !tbaa !44
  %.not4.i = icmp eq i32 %55, 0
  br i1 %54, label %56, label %62

56:                                               ; preds = %51
  br i1 %.not4.i, label %_.exit, label %57

57:                                               ; preds = %56
  %58 = tail call ptr @dcgettext(ptr noundef null, ptr noundef nonnull @.str.92, i32 noundef 5) #27
  br label %_.exit

_.exit:                                           ; preds = %56, %57
  %.0.i40 = phi ptr [ %58, %57 ], [ @.str.92, %56 ]
  %59 = load ptr, ptr @the_repository, align 8, !tbaa !9
  %60 = tail call ptr @repo_get_object_directory(ptr noundef %59) #27
  %61 = tail call i32 (ptr, ...) @error(ptr noundef %.0.i40, ptr noundef %60) #27
  br label %90

62:                                               ; preds = %51
  br i1 %.not4.i, label %_.exit43, label %63

63:                                               ; preds = %62
  %64 = tail call ptr @dcgettext(ptr noundef null, ptr noundef nonnull @.str.93, i32 noundef 5) #27
  br label %_.exit43

_.exit43:                                         ; preds = %62, %63
  %.0.i42 = phi ptr [ %64, %63 ], [ @.str.93, %62 ]
  %65 = tail call i32 (ptr, ...) @error_errno(ptr noundef %.0.i42) #27
  br label %90

66:                                               ; preds = %create_tmpfile.exit
  %67 = load i32, ptr @zlib_compression_level, align 4, !tbaa !44
  tail call void @git_deflate_init(ptr noundef nonnull %3, i32 noundef %67) #27
  %68 = getelementptr inbounds nuw i8, ptr %3, i64 152
  store ptr %4, ptr %68, align 8, !tbaa !109
  %69 = getelementptr inbounds nuw i8, ptr %3, i64 120
  store i64 4096, ptr %69, align 8, !tbaa !110
  %70 = getelementptr inbounds nuw i8, ptr %12, i64 40
  %71 = load ptr, ptr %70, align 8, !tbaa !100
  tail call void %71(ptr noundef nonnull %5) #27
  %72 = icmp ne ptr %14, null
  %73 = icmp ne ptr %6, null
  %or.cond = and i1 %73, %72
  br i1 %or.cond, label %74, label %77

74:                                               ; preds = %66
  %75 = getelementptr inbounds nuw i8, ptr %14, i64 40
  %76 = load ptr, ptr %75, align 8, !tbaa !100
  tail call void %76(ptr noundef nonnull %6) #27
  br label %77

77:                                               ; preds = %74, %66
  %78 = getelementptr inbounds nuw i8, ptr %3, i64 144
  store ptr %7, ptr %78, align 8, !tbaa !104
  %79 = sext i32 %8 to i64
  %80 = getelementptr inbounds nuw i8, ptr %3, i64 112
  store i64 %79, ptr %80, align 8, !tbaa !108
  br label %81

81:                                               ; preds = %81, %77
  %82 = tail call i32 @git_deflate(ptr noundef nonnull %3, i32 noundef 0) #27
  %83 = icmp eq i32 %82, 0
  br i1 %83, label %81, label %84, !llvm.loop !157

84:                                               ; preds = %81
  %85 = getelementptr inbounds nuw i8, ptr %12, i64 56
  %86 = load ptr, ptr %85, align 8, !tbaa !101
  tail call void %86(ptr noundef nonnull %5, ptr noundef %7, i64 noundef %79) #27
  br i1 %or.cond, label %87, label %90

87:                                               ; preds = %84
  %88 = getelementptr inbounds nuw i8, ptr %14, i64 56
  %89 = load ptr, ptr %88, align 8, !tbaa !101
  tail call void %89(ptr noundef nonnull %6, ptr noundef %7, i64 noundef %79) #27
  br label %90

90:                                               ; preds = %84, %87, %create_tmpfile.exit.thread, %_.exit43, %_.exit
  %.0 = phi i32 [ -1, %_.exit ], [ -1, %_.exit43 ], [ -1, %create_tmpfile.exit.thread ], [ %.0.i, %87 ], [ %.0.i, %84 ]
  ret i32 %.0
}